
build/output.elf:     file format elf32-littlearm

Disassembly of section .init:

00008000 <_start>:
    8000:	ea00005b 	b	8174 <main>
Disassembly of section .text:

00008004 <InitialiseFrameBuffer>:
    8004:	e3500a01 	cmp	r0, #4096	; 0x1000
    8008:	93510a01 	cmpls	r1, #4096	; 0x1000
    800c:	93520020 	cmpls	r2, #32	; 0x20
    8010:	83a00000 	movhi	r0, #0	; 0x0
    8014:	81a0f00e 	movhi	pc, lr
    8018:	e92d4010 	push	{r4, lr}
    801c:	e59f403c 	ldr	r4, [pc, #60]	; 8060 <InitialiseFrameBuffer+0x5c>
    8020:	e5840000 	str	r0, [r4]
    8024:	e5841004 	str	r1, [r4, #4]
    8028:	e5840008 	str	r0, [r4, #8]
    802c:	e584100c 	str	r1, [r4, #12]
    8030:	e5842014 	str	r2, [r4, #20]
    8034:	e1a00004 	mov	r0, r4
    8038:	e2800101 	add	r0, r0, #1073741824	; 0x40000000
    803c:	e3a01001 	mov	r1, #1	; 0x1
    8040:	eb00002f 	bl	8104 <MailboxWrite>
    8044:	e3a00001 	mov	r0, #1	; 0x1
    8048:	eb00003a 	bl	8138 <MailboxRead>
    804c:	e3300000 	teq	r0, #0	; 0x0
    8050:	13a00000 	movne	r0, #0	; 0x0
    8054:	18bd8010 	popne	{r4, pc}
    8058:	e1a00004 	mov	r0, r4
    805c:	e8bd8010 	pop	{r4, pc}
    8060:	00009000 	.word	0x00009000

00008064 <GetGpioAddress>:
    8064:	e59f008c 	ldr	r0, [pc, #140]	; 80f8 <SetGpio+0x3c>
    8068:	e1a0f00e 	mov	pc, lr

0000806c <SetGpioFunction>:
    806c:	e3500035 	cmp	r0, #53	; 0x35
    8070:	93510007 	cmpls	r1, #7	; 0x7
    8074:	81a0f00e 	movhi	pc, lr
    8078:	e92d4000 	push	{lr}
    807c:	e1a02000 	mov	r2, r0
    8080:	ebfffff7 	bl	8064 <GetGpioAddress>

00008084 <functionLoop$>:
    8084:	e3520009 	cmp	r2, #9	; 0x9
    8088:	8242200a 	subhi	r2, r2, #10	; 0xa
    808c:	82800004 	addhi	r0, r0, #4	; 0x4
    8090:	8afffffb 	bhi	8084 <functionLoop$>
    8094:	e0822082 	add	r2, r2, r2, lsl #1
    8098:	e1a01211 	lsl	r1, r1, r2
    809c:	e3a03007 	mov	r3, #7	; 0x7
    80a0:	e1a03213 	lsl	r3, r3, r2
    80a4:	e1e03003 	mvn	r3, r3
    80a8:	e5902000 	ldr	r2, [r0]
    80ac:	e0022003 	and	r2, r2, r3
    80b0:	e1811002 	orr	r1, r1, r2
    80b4:	e5801000 	str	r1, [r0]
    80b8:	e8bd8000 	pop	{pc}

000080bc <SetGpio>:
    80bc:	e3500035 	cmp	r0, #53	; 0x35
    80c0:	81a0f00e 	movhi	pc, lr
    80c4:	e92d4000 	push	{lr}
    80c8:	e1a02000 	mov	r2, r0
    80cc:	ebffffe4 	bl	8064 <GetGpioAddress>
    80d0:	e1a032a2 	lsr	r3, r2, #5
    80d4:	e1a03103 	lsl	r3, r3, #2
    80d8:	e0800003 	add	r0, r0, r3
    80dc:	e202201f 	and	r2, r2, #31	; 0x1f
    80e0:	e3a03001 	mov	r3, #1	; 0x1
    80e4:	e1a03213 	lsl	r3, r3, r2
    80e8:	e3310000 	teq	r1, #0	; 0x0
    80ec:	05803028 	streq	r3, [r0, #40]
    80f0:	1580301c 	strne	r3, [r0, #28]
    80f4:	e8bd8000 	pop	{pc}
    80f8:	20200000 	.word	0x20200000

000080fc <GetMailboxBase>:
    80fc:	e59f006c 	ldr	r0, [pc, #108]	; 8170 <rightmail$+0x24>
    8100:	e1a0f00e 	mov	pc, lr

00008104 <MailboxWrite>:
    8104:	e310000f 	tst	r0, #15	; 0xf
    8108:	11a0f00e 	movne	pc, lr
    810c:	e351000f 	cmp	r1, #15	; 0xf
    8110:	81a0f00e 	movhi	pc, lr
    8114:	e1a02000 	mov	r2, r0
    8118:	e92d4000 	push	{lr}
    811c:	ebfffff6 	bl	80fc <GetMailboxBase>

00008120 <wait1$>:
    8120:	e5903018 	ldr	r3, [r0, #24]
    8124:	e3130102 	tst	r3, #-2147483648	; 0x80000000
    8128:	1afffffc 	bne	8120 <wait1$>
    812c:	e0822001 	add	r2, r2, r1
    8130:	e5802020 	str	r2, [r0, #32]
    8134:	e8bd8000 	pop	{pc}

00008138 <MailboxRead>:
    8138:	e350000f 	cmp	r0, #15	; 0xf
    813c:	81a0f00e 	movhi	pc, lr
    8140:	e1a01000 	mov	r1, r0
    8144:	e92d4000 	push	{lr}
    8148:	ebffffeb 	bl	80fc <GetMailboxBase>

0000814c <rightmail$>:
    814c:	e5902018 	ldr	r2, [r0, #24]
    8150:	e3120101 	tst	r2, #1073741824	; 0x40000000
    8154:	1afffffc 	bne	814c <rightmail$>
    8158:	e5902000 	ldr	r2, [r0]
    815c:	e202300f 	and	r3, r2, #15	; 0xf
    8160:	e1330001 	teq	r3, r1
    8164:	1afffff8 	bne	814c <rightmail$>
    8168:	e3c2000f 	bic	r0, r2, #15	; 0xf
    816c:	e8bd8000 	pop	{pc}
    8170:	2000b880 	.word	0x2000b880

00008174 <main>:
    8174:	e3a0d902 	mov	sp, #32768	; 0x8000
    8178:	e3a00b01 	mov	r0, #1024	; 0x400
    817c:	e3a01c03 	mov	r1, #768	; 0x300
    8180:	e3a02010 	mov	r2, #16	; 0x10
    8184:	ebffff9e 	bl	8004 <InitialiseFrameBuffer>
    8188:	e3300000 	teq	r0, #0	; 0x0
    818c:	1a000006 	bne	81ac <noError$>
    8190:	e3a00010 	mov	r0, #16	; 0x10
    8194:	e3a01001 	mov	r1, #1	; 0x1
    8198:	ebffffb3 	bl	806c <SetGpioFunction>
    819c:	e3a00010 	mov	r0, #16	; 0x10
    81a0:	e3a01000 	mov	r1, #0	; 0x0
    81a4:	ebffffc4 	bl	80bc <SetGpio>

000081a8 <error$>:
    81a8:	eafffffe 	b	81a8 <error$>

000081ac <noError$>:
    81ac:	e1a04000 	mov	r4, r0

000081b0 <render$>:
    81b0:	e5943020 	ldr	r3, [r4, #32]
    81b4:	e3a01c03 	mov	r1, #768	; 0x300

000081b8 <drawRow$>:
    81b8:	e3a02b01 	mov	r2, #1024	; 0x400

000081bc <drawPixel$>:
    81bc:	e1c300b0 	strh	r0, [r3]
    81c0:	e2833002 	add	r3, r3, #2	; 0x2
    81c4:	e2422001 	sub	r2, r2, #1	; 0x1
    81c8:	e3320000 	teq	r2, #0	; 0x0
    81cc:	1afffffa 	bne	81bc <drawPixel$>
    81d0:	e2411001 	sub	r1, r1, #1	; 0x1
    81d4:	e2800001 	add	r0, r0, #1	; 0x1
    81d8:	e3310000 	teq	r1, #0	; 0x0
    81dc:	1afffff5 	bne	81b8 <drawRow$>
    81e0:	eafffff2 	b	81b0 <render$>

000081e4 <GetSystemTimerBase>:
    81e4:	e59f0034 	ldr	r0, [pc, #52]	; 8220 <loop$+0x14>
    81e8:	e1a0f00e 	mov	pc, lr

000081ec <GetTimeStamp>:
    81ec:	e92d4000 	push	{lr}
    81f0:	ebfffffb 	bl	81e4 <GetSystemTimerBase>
    81f4:	e1c000d4 	ldrd	r0, [r0, #4]
    81f8:	e8bd8000 	pop	{pc}

000081fc <Wait>:
    81fc:	e1a02000 	mov	r2, r0
    8200:	e92d4000 	push	{lr}
    8204:	ebfffff8 	bl	81ec <GetTimeStamp>
    8208:	e1a03000 	mov	r3, r0

0000820c <loop$>:
    820c:	ebfffff6 	bl	81ec <GetTimeStamp>
    8210:	e0401003 	sub	r1, r0, r3
    8214:	e1510002 	cmp	r1, r2
    8218:	9afffffb 	bls	820c <loop$>
    821c:	e8bd8000 	pop	{pc}
    8220:	20003000 	.word	0x20003000
